target datalayout = "e-m:e-p270:32:32-p271:32:32-p272:64:64-i64:64-i128:128-f80:128-n8:16:32:64-S128"
target triple = "x86_64-pc-linux-gnu"

; Function Attrs: inlinehint mustprogress nounwind uwtable
define linkonce_odr noundef ptr @_ZN6icu_779BytesTrie9skipValueEPKhi(ptr noundef %0, i32 noundef %1) #5 comdat align 2 {
  %3 = alloca ptr, align 8
  %4 = alloca i32, align 4
  store ptr %0, ptr %3, align 8, !tbaa !12
  store i32 %1, ptr %4, align 4, !tbaa !13
  %5 = load i32, ptr %4, align 4, !tbaa !13
  %6 = icmp sge i32 %5, 162
  br i1 %6, label %7, label %29

7:                                                ; preds = %2
  %8 = load i32, ptr %4, align 4, !tbaa !13
  %9 = icmp slt i32 %8, 216
  br i1 %9, label %10, label %13

10:                                               ; preds = %7
  %11 = load ptr, ptr %3, align 8, !tbaa !12
  %12 = getelementptr inbounds nuw i8, ptr %11, i32 1
  store ptr %12, ptr %3, align 8, !tbaa !12
  br label %28

13:                                               ; preds = %7
  %14 = load i32, ptr %4, align 4, !tbaa !13
  %15 = icmp slt i32 %14, 252
  br i1 %15, label %16, label %19

16:                                               ; preds = %13
  %17 = load ptr, ptr %3, align 8, !tbaa !12
  %18 = getelementptr inbounds i8, ptr %17, i64 2
  store ptr %18, ptr %3, align 8, !tbaa !12
  br label %27

19:                                               ; preds = %13
  %20 = load i32, ptr %4, align 4, !tbaa !13
  %21 = ashr i32 %20, 1
  %22 = and i32 %21, 1
  %23 = add nsw i32 3, %22
  %24 = load ptr, ptr %3, align 8, !tbaa !12
  %25 = sext i32 %23 to i64
  %26 = getelementptr inbounds i8, ptr %24, i64 %25
  store ptr %26, ptr %3, align 8, !tbaa !12
  br label %27

27:                                               ; preds = %19, %16
  br label %28

28:                                               ; preds = %27, %10
  br label %29

29:                                               ; preds = %28, %2
  %30 = load ptr, ptr %3, align 8, !tbaa !12
  ret ptr %30
}

; Function Attrs: inlinehint mustprogress uwtable
define linkonce_odr noundef ptr @_ZN6icu_779BytesTrie9skipValueEPKh(ptr noundef %0) #6 comdat align 2 {
  %2 = alloca ptr, align 8
  %3 = alloca i32, align 4
  store ptr %0, ptr %2, align 8, !tbaa !12
  call void @llvm.lifetime.start.p0(i64 4, ptr %3) #8
  %4 = load ptr, ptr %2, align 8, !tbaa !12
  %5 = getelementptr inbounds nuw i8, ptr %4, i32 1
  store ptr %5, ptr %2, align 8, !tbaa !12
  %6 = load i8, ptr %4, align 1, !tbaa !14
  %7 = zext i8 %6 to i32
  store i32 %7, ptr %3, align 4, !tbaa !13
  %8 = load ptr, ptr %2, align 8, !tbaa !12
  %9 = load i32, ptr %3, align 4, !tbaa !13
  %10 = call noundef ptr @_ZN6icu_779BytesTrie9skipValueEPKhi(ptr noundef %8, i32 noundef %9)
  call void @llvm.lifetime.end.p0(i64 4, ptr %3) #8
  ret ptr %10
}

; Function Attrs: mustprogress uwtable
define void @_ZN6icu_779BytesTrie6appendERNS_8ByteSinkEi(ptr noundef nonnull align 8 dereferenceable(8) %0, i32 noundef %1) #4 align 2 {
  %3 = alloca ptr, align 8
  %4 = alloca i32, align 4
  %5 = alloca i8, align 1
  store ptr %0, ptr %3, align 8, !tbaa !32
  store i32 %1, ptr %4, align 4, !tbaa !13
  call void @llvm.lifetime.start.p0(i64 1, ptr %5) #8
  %6 = load i32, ptr %4, align 4, !tbaa !13
  %7 = trunc i32 %6 to i8
  store i8 %7, ptr %5, align 1, !tbaa !14
  %8 = load ptr, ptr %3, align 8, !tbaa !32
  %9 = load ptr, ptr %8, align 8, !tbaa !34
  %10 = getelementptr inbounds ptr, ptr %9, i64 2
  %11 = load ptr, ptr %10, align 8
  call void %11(ptr noundef nonnull align 8 dereferenceable(8) %8, ptr noundef %5, i32 noundef 1)
  call void @llvm.lifetime.end.p0(i64 1, ptr %5) #8
  ret void
}

; Function Attrs: inlinehint mustprogress nounwind uwtable
define linkonce_odr noundef ptr @_ZN6icu_779BytesTrie9skipDeltaEPKh(ptr noundef %0) #5 comdat align 2 {
  %2 = alloca ptr, align 8
  %3 = alloca i32, align 4
  store ptr %0, ptr %2, align 8, !tbaa !12
  call void @llvm.lifetime.start.p0(i64 4, ptr %3) #8
  %4 = load ptr, ptr %2, align 8, !tbaa !12
  %5 = getelementptr inbounds nuw i8, ptr %4, i32 1
  store ptr %5, ptr %2, align 8, !tbaa !12
  %6 = load i8, ptr %4, align 1, !tbaa !14
  %7 = zext i8 %6 to i32
  store i32 %7, ptr %3, align 4, !tbaa !13
  %8 = load i32, ptr %3, align 4, !tbaa !13
  %9 = icmp sge i32 %8, 192
  br i1 %9, label %10, label %31

10:                                               ; preds = %1
  %11 = load i32, ptr %3, align 4, !tbaa !13
  %12 = icmp slt i32 %11, 240
  br i1 %12, label %13, label %16

13:                                               ; preds = %10
  %14 = load ptr, ptr %2, align 8, !tbaa !12
  %15 = getelementptr inbounds nuw i8, ptr %14, i32 1
  store ptr %15, ptr %2, align 8, !tbaa !12
  br label %30

16:                                               ; preds = %10
  %17 = load i32, ptr %3, align 4, !tbaa !13
  %18 = icmp slt i32 %17, 254
  br i1 %18, label %19, label %22

19:                                               ; preds = %16
  %20 = load ptr, ptr %2, align 8, !tbaa !12
  %21 = getelementptr inbounds i8, ptr %20, i64 2
  store ptr %21, ptr %2, align 8, !tbaa !12
  br label %29

22:                                               ; preds = %16
  %23 = load i32, ptr %3, align 4, !tbaa !13
  %24 = and i32 %23, 1
  %25 = add nsw i32 3, %24
  %26 = load ptr, ptr %2, align 8, !tbaa !12
  %27 = sext i32 %25 to i64
  %28 = getelementptr inbounds i8, ptr %26, i64 %27
  store ptr %28, ptr %2, align 8, !tbaa !12
  br label %29

29:                                               ; preds = %22, %19
  br label %30

30:                                               ; preds = %29, %13
  br label %31

31:                                               ; preds = %30, %1
  %32 = load ptr, ptr %2, align 8, !tbaa !12
  call void @llvm.lifetime.end.p0(i64 4, ptr %3) #8
  ret ptr %32
}

; Function Attrs: mustprogress nounwind uwtable
define noundef ptr @_ZN6icu_779BytesTrie11jumpByDeltaEPKh(ptr noundef %0) #0 align 2 {
  %2 = alloca ptr, align 8
  %3 = alloca i32, align 4
  store ptr %0, ptr %2, align 8, !tbaa !12
  call void @llvm.lifetime.start.p0(i64 4, ptr %3) #8
  %4 = load ptr, ptr %2, align 8, !tbaa !12
  %5 = getelementptr inbounds nuw i8, ptr %4, i32 1
  store ptr %5, ptr %2, align 8, !tbaa !12
  %6 = load i8, ptr %4, align 1, !tbaa !14
  %7 = zext i8 %6 to i32
  store i32 %7, ptr %3, align 4, !tbaa !13
  %8 = load i32, ptr %3, align 4, !tbaa !13
  %9 = icmp slt i32 %8, 192
  br i1 %9, label %10, label %11

10:                                               ; preds = %1
  br label %93

11:                                               ; preds = %1
  %12 = load i32, ptr %3, align 4, !tbaa !13
  %13 = icmp slt i32 %12, 240
  br i1 %13, label %14, label %23

14:                                               ; preds = %11
  %15 = load i32, ptr %3, align 4, !tbaa !13
  %16 = sub nsw i32 %15, 192
  %17 = shl i32 %16, 8
  %18 = load ptr, ptr %2, align 8, !tbaa !12
  %19 = getelementptr inbounds nuw i8, ptr %18, i32 1
  store ptr %19, ptr %2, align 8, !tbaa !12
  %20 = load i8, ptr %18, align 1, !tbaa !14
  %21 = zext i8 %20 to i32
  %22 = or i32 %17, %21
  store i32 %22, ptr %3, align 4, !tbaa !13
  br label %92

23:                                               ; preds = %11
  %24 = load i32, ptr %3, align 4, !tbaa !13
  %25 = icmp slt i32 %24, 254
  br i1 %25, label %26, label %43

26:                                               ; preds = %23
  %27 = load i32, ptr %3, align 4, !tbaa !13
  %28 = sub nsw i32 %27, 240
  %29 = shl i32 %28, 16
  %30 = load ptr, ptr %2, align 8, !tbaa !12
  %31 = getelementptr inbounds i8, ptr %30, i64 0
  %32 = load i8, ptr %31, align 1, !tbaa !14
  %33 = zext i8 %32 to i32
  %34 = shl i32 %33, 8
  %35 = or i32 %29, %34
  %36 = load ptr, ptr %2, align 8, !tbaa !12
  %37 = getelementptr inbounds i8, ptr %36, i64 1
  %38 = load i8, ptr %37, align 1, !tbaa !14
  %39 = zext i8 %38 to i32
  %40 = or i32 %35, %39
  store i32 %40, ptr %3, align 4, !tbaa !13
  %41 = load ptr, ptr %2, align 8, !tbaa !12
  %42 = getelementptr inbounds i8, ptr %41, i64 2
  store ptr %42, ptr %2, align 8, !tbaa !12
  br label %91

43:                                               ; preds = %23
  %44 = load i32, ptr %3, align 4, !tbaa !13
  %45 = icmp eq i32 %44, 254
  br i1 %45, label %46, label %65

46:                                               ; preds = %43
  %47 = load ptr, ptr %2, align 8, !tbaa !12
  %48 = getelementptr inbounds i8, ptr %47, i64 0
  %49 = load i8, ptr %48, align 1, !tbaa !14
  %50 = zext i8 %49 to i32
  %51 = shl i32 %50, 16
  %52 = load ptr, ptr %2, align 8, !tbaa !12
  %53 = getelementptr inbounds i8, ptr %52, i64 1
  %54 = load i8, ptr %53, align 1, !tbaa !14
  %55 = zext i8 %54 to i32
  %56 = shl i32 %55, 8
  %57 = or i32 %51, %56
  %58 = load ptr, ptr %2, align 8, !tbaa !12
  %59 = getelementptr inbounds i8, ptr %58, i64 2
  %60 = load i8, ptr %59, align 1, !tbaa !14
  %61 = zext i8 %60 to i32
  %62 = or i32 %57, %61
  store i32 %62, ptr %3, align 4, !tbaa !13
  %63 = load ptr, ptr %2, align 8, !tbaa !12
  %64 = getelementptr inbounds i8, ptr %63, i64 3
  store ptr %64, ptr %2, align 8, !tbaa !12
  br label %90

65:                                               ; preds = %43
  %66 = load ptr, ptr %2, align 8, !tbaa !12
  %67 = getelementptr inbounds i8, ptr %66, i64 0
  %68 = load i8, ptr %67, align 1, !tbaa !14
  %69 = zext i8 %68 to i32
  %70 = shl i32 %69, 24
  %71 = load ptr, ptr %2, align 8, !tbaa !12
  %72 = getelementptr inbounds i8, ptr %71, i64 1
  %73 = load i8, ptr %72, align 1, !tbaa !14
  %74 = zext i8 %73 to i32
  %75 = shl i32 %74, 16
  %76 = or i32 %70, %75
  %77 = load ptr, ptr %2, align 8, !tbaa !12
  %78 = getelementptr inbounds i8, ptr %77, i64 2
  %79 = load i8, ptr %78, align 1, !tbaa !14
  %80 = zext i8 %79 to i32
  %81 = shl i32 %80, 8
  %82 = or i32 %76, %81
  %83 = load ptr, ptr %2, align 8, !tbaa !12
  %84 = getelementptr inbounds i8, ptr %83, i64 3
  %85 = load i8, ptr %84, align 1, !tbaa !14
  %86 = zext i8 %85 to i32
  %87 = or i32 %82, %86
  store i32 %87, ptr %3, align 4, !tbaa !13
  %88 = load ptr, ptr %2, align 8, !tbaa !12
  %89 = getelementptr inbounds i8, ptr %88, i64 4
  store ptr %89, ptr %2, align 8, !tbaa !12
  br label %90

90:                                               ; preds = %65, %46
  br label %91

91:                                               ; preds = %90, %26
  br label %92

92:                                               ; preds = %91, %14
  br label %93

93:                                               ; preds = %92, %10
  %94 = load ptr, ptr %2, align 8, !tbaa !12
  %95 = load i32, ptr %3, align 4, !tbaa !13
  %96 = sext i32 %95 to i64
  %97 = getelementptr inbounds i8, ptr %94, i64 %96
  call void @llvm.lifetime.end.p0(i64 4, ptr %3) #8
  ret ptr %97
}

; Function Attrs: mustprogress uwtable
define void @_ZN6icu_779BytesTrie18getNextBranchBytesEPKhiRNS_8ByteSinkE(ptr noundef %0, i32 noundef %1, ptr noundef nonnull align 8 dereferenceable(8) %2) #4 align 2 {
  %4 = alloca ptr, align 8
  %5 = alloca i32, align 4
  %6 = alloca ptr, align 8
  store ptr %0, ptr %4, align 8, !tbaa !12
  store i32 %1, ptr %5, align 4, !tbaa !13
  store ptr %2, ptr %6, align 8, !tbaa !32
  br label %7

7:                                                ; preds = %10, %3
  %8 = load i32, ptr %5, align 4, !tbaa !13
  %9 = icmp sgt i32 %8, 5
  br i1 %9, label %10, label %24

10:                                               ; preds = %7
  %11 = load ptr, ptr %4, align 8, !tbaa !12
  %12 = getelementptr inbounds nuw i8, ptr %11, i32 1
  store ptr %12, ptr %4, align 8, !tbaa !12
  %13 = load ptr, ptr %4, align 8, !tbaa !12
  %14 = call noundef ptr @_ZN6icu_779BytesTrie11jumpByDeltaEPKh(ptr noundef %13)
  %15 = load i32, ptr %5, align 4, !tbaa !13
  %16 = ashr i32 %15, 1
  %17 = load ptr, ptr %6, align 8, !tbaa !32
  call void @_ZN6icu_779BytesTrie18getNextBranchBytesEPKhiRNS_8ByteSinkE(ptr noundef %14, i32 noundef %16, ptr noundef nonnull align 8 dereferenceable(8) %17)
  %18 = load i32, ptr %5, align 4, !tbaa !13
  %19 = load i32, ptr %5, align 4, !tbaa !13
  %20 = ashr i32 %19, 1
  %21 = sub nsw i32 %18, %20
  store i32 %21, ptr %5, align 4, !tbaa !13
  %22 = load ptr, ptr %4, align 8, !tbaa !12
  %23 = call noundef ptr @_ZN6icu_779BytesTrie9skipDeltaEPKh(ptr noundef %22)
  store ptr %23, ptr %4, align 8, !tbaa !12
  br label %7, !llvm.loop !36

24:                                               ; preds = %7
  br label %25

25:                                               ; preds = %33, %24
  %26 = load ptr, ptr %6, align 8, !tbaa !32
  %27 = load ptr, ptr %4, align 8, !tbaa !12
  %28 = getelementptr inbounds nuw i8, ptr %27, i32 1
  store ptr %28, ptr %4, align 8, !tbaa !12
  %29 = load i8, ptr %27, align 1, !tbaa !14
  %30 = zext i8 %29 to i32
  call void @_ZN6icu_779BytesTrie6appendERNS_8ByteSinkEi(ptr noundef nonnull align 8 dereferenceable(8) %26, i32 noundef %30)
  %31 = load ptr, ptr %4, align 8, !tbaa !12
  %32 = call noundef ptr @_ZN6icu_779BytesTrie9skipValueEPKh(ptr noundef %31)
  store ptr %32, ptr %4, align 8, !tbaa !12
  br label %33

33:                                               ; preds = %25
  %34 = load i32, ptr %5, align 4, !tbaa !13
  %35 = add nsw i32 %34, -1
  store i32 %35, ptr %5, align 4, !tbaa !13
  %36 = icmp sgt i32 %35, 1
  br i1 %36, label %25, label %37, !llvm.loop !37

37:                                               ; preds = %33
  %38 = load ptr, ptr %6, align 8, !tbaa !32
  %39 = load ptr, ptr %4, align 8, !tbaa !12
  %40 = load i8, ptr %39, align 1, !tbaa !14
  %41 = zext i8 %40 to i32
  call void @_ZN6icu_779BytesTrie6appendERNS_8ByteSinkEi(ptr noundef nonnull align 8 dereferenceable(8) %38, i32 noundef %41)
  ret void
}