; Function Attrs: mustprogress uwtable
define void @_ZN6icu_779BytesTrie18getNextBranchBytesEPKhiRNS_8ByteSinkE(ptr noundef readonly captures(none) %0, i32 noundef %1, ptr noundef nonnull align 8 dereferenceable(8) %2) local_unnamed_addr #10 align 2 {
  %4 = alloca i8, align 1
  %5 = alloca i8, align 1
  %6 = icmp sgt i32 %1, 5
  br i1 %6, label %.lr.ph, label %.preheader.preheader

.lr.ph:                                           ; preds = %3, %_ZN6icu_779BytesTrie9skipDeltaEPKh.exit
  %.017 = phi ptr [ %.0.i15, %_ZN6icu_779BytesTrie9skipDeltaEPKh.exit ], [ %0, %3 ]
  %.01316 = phi i32 [ %65, %_ZN6icu_779BytesTrie9skipDeltaEPKh.exit ], [ %1, %3 ]
  %7 = getelementptr inbounds nuw i8, ptr %.017, i64 1
  %8 = getelementptr inbounds nuw i8, ptr %.017, i64 2
  %9 = load i8, ptr %7, align 1, !tbaa !10
  %10 = zext i8 %9 to i32
  %11 = icmp ult i8 %9, -64
  br i1 %11, label %_ZN6icu_779BytesTrie11jumpByDeltaEPKh.exit, label %12

12:                                               ; preds = %.lr.ph
  %13 = icmp samesign ult i8 %9, -16
  br i1 %13, label %14, label %21

14:                                               ; preds = %12
  %15 = shl nuw nsw i32 %10, 8
  %16 = add nsw i32 %15, -49152
  %17 = getelementptr inbounds nuw i8, ptr %.017, i64 3
  %18 = load i8, ptr %8, align 1, !tbaa !10
  %19 = zext i8 %18 to i32
  %20 = or disjoint i32 %16, %19
  br label %_ZN6icu_779BytesTrie11jumpByDeltaEPKh.exit

21:                                               ; preds = %12
  %22 = icmp samesign ult i8 %9, -2
  br i1 %22, label %23, label %35

23:                                               ; preds = %21
  %24 = shl nuw nsw i32 %10, 16
  %25 = add nsw i32 %24, -15728640
  %26 = load i8, ptr %8, align 1, !tbaa !10
  %27 = zext i8 %26 to i32
  %28 = shl nuw nsw i32 %27, 8
  %29 = or disjoint i32 %28, %25
  %30 = getelementptr inbounds nuw i8, ptr %.017, i64 3
  %31 = load i8, ptr %30, align 1, !tbaa !10
  %32 = zext i8 %31 to i32
  %33 = or disjoint i32 %29, %32
  %34 = getelementptr inbounds nuw i8, ptr %.017, i64 4
  br label %_ZN6icu_779BytesTrie11jumpByDeltaEPKh.exit

35:                                               ; preds = %21
  %36 = icmp eq i8 %9, -2
  %37 = load i8, ptr %8, align 1, !tbaa !10
  %38 = zext i8 %37 to i32
  %39 = getelementptr inbounds nuw i8, ptr %.017, i64 3
  %40 = load i8, ptr %39, align 1, !tbaa !10
  %41 = zext i8 %40 to i32
  %42 = getelementptr inbounds nuw i8, ptr %.017, i64 4
  %43 = load i8, ptr %42, align 1, !tbaa !10
  %44 = zext i8 %43 to i32
  br i1 %36, label %45, label %51

45:                                               ; preds = %35
  %46 = shl nuw nsw i32 %38, 16
  %47 = shl nuw nsw i32 %41, 8
  %48 = or disjoint i32 %47, %46
  %49 = or disjoint i32 %48, %44
  %50 = getelementptr inbounds nuw i8, ptr %.017, i64 5
  br label %_ZN6icu_779BytesTrie11jumpByDeltaEPKh.exit

51:                                               ; preds = %35
  %52 = shl nuw i32 %38, 24
  %53 = shl nuw nsw i32 %41, 16
  %54 = or disjoint i32 %53, %52
  %55 = shl nuw nsw i32 %44, 8
  %56 = or disjoint i32 %54, %55
  %57 = getelementptr inbounds nuw i8, ptr %.017, i64 5
  %58 = load i8, ptr %57, align 1, !tbaa !10
  %59 = zext i8 %58 to i32
  %60 = or disjoint i32 %56, %59
  %61 = getelementptr inbounds nuw i8, ptr %.017, i64 6
  br label %_ZN6icu_779BytesTrie11jumpByDeltaEPKh.exit

_ZN6icu_779BytesTrie11jumpByDeltaEPKh.exit:       ; preds = %.lr.ph, %14, %23, %45, %51
  %.021.i = phi ptr [ %8, %.lr.ph ], [ %17, %14 ], [ %34, %23 ], [ %50, %45 ], [ %61, %51 ]
  %.0.i = phi i32 [ %10, %.lr.ph ], [ %20, %14 ], [ %33, %23 ], [ %49, %45 ], [ %60, %51 ]
  %62 = sext i32 %.0.i to i64
  %63 = getelementptr inbounds i8, ptr %.021.i, i64 %62
  %64 = lshr i32 %.01316, 1
  tail call void @_ZN6icu_779BytesTrie18getNextBranchBytesEPKhiRNS_8ByteSinkE(ptr noundef nonnull %63, i32 noundef %64, ptr noundef nonnull align 8 dereferenceable(8) %2)
  %65 = sub nsw i32 %.01316, %64
  %66 = load i8, ptr %7, align 1, !tbaa !10
  %67 = icmp ugt i8 %66, -65
  br i1 %67, label %68, label %_ZN6icu_779BytesTrie9skipDeltaEPKh.exit

68:                                               ; preds = %_ZN6icu_779BytesTrie11jumpByDeltaEPKh.exit
  %69 = icmp samesign ult i8 %66, -16
  br i1 %69, label %70, label %72

70:                                               ; preds = %68
  %71 = getelementptr inbounds nuw i8, ptr %.017, i64 3
  br label %_ZN6icu_779BytesTrie9skipDeltaEPKh.exit

72:                                               ; preds = %68
  %73 = icmp samesign ult i8 %66, -2
  br i1 %73, label %74, label %76

74:                                               ; preds = %72
  %75 = getelementptr inbounds nuw i8, ptr %.017, i64 4
  br label %_ZN6icu_779BytesTrie9skipDeltaEPKh.exit

76:                                               ; preds = %72
  %77 = and i8 %66, 1
  %78 = zext nneg i8 %77 to i64
  %79 = getelementptr inbounds nuw i8, ptr %8, i64 %78
  %80 = getelementptr inbounds nuw i8, ptr %79, i64 3
  br label %_ZN6icu_779BytesTrie9skipDeltaEPKh.exit

_ZN6icu_779BytesTrie9skipDeltaEPKh.exit:          ; preds = %_ZN6icu_779BytesTrie11jumpByDeltaEPKh.exit, %70, %74, %76
  %.0.i15 = phi ptr [ %71, %70 ], [ %75, %74 ], [ %80, %76 ], [ %8, %_ZN6icu_779BytesTrie11jumpByDeltaEPKh.exit ]
  %81 = icmp sgt i32 %65, 5
  br i1 %81, label %.lr.ph, label %.preheader.preheader, !llvm.loop !24

.preheader.preheader:                             ; preds = %_ZN6icu_779BytesTrie9skipDeltaEPKh.exit, %3
  %.114.ph = phi i32 [ %1, %3 ], [ %65, %_ZN6icu_779BytesTrie9skipDeltaEPKh.exit ]
  %.1.ph = phi ptr [ %0, %3 ], [ %.0.i15, %_ZN6icu_779BytesTrie9skipDeltaEPKh.exit ]
  br label %.preheader

.preheader:                                       ; preds = %.preheader.preheader, %_ZN6icu_779BytesTrie9skipValueEPKh.exit
  %.114 = phi i32 [ %104, %_ZN6icu_779BytesTrie9skipValueEPKh.exit ], [ %.114.ph, %.preheader.preheader ]
  %.1 = phi ptr [ %.0.i.i, %_ZN6icu_779BytesTrie9skipValueEPKh.exit ], [ %.1.ph, %.preheader.preheader ]
  %82 = getelementptr inbounds nuw i8, ptr %.1, i64 1
  %83 = load i8, ptr %.1, align 1, !tbaa !10
  call void @llvm.lifetime.start.p0(i64 1, ptr nonnull %5) #13
  store i8 %83, ptr %5, align 1, !tbaa !10
  %84 = load ptr, ptr %2, align 8, !tbaa !22
  %85 = getelementptr inbounds nuw i8, ptr %84, i64 16
  %86 = load ptr, ptr %85, align 8
  call void %86(ptr noundef nonnull align 8 dereferenceable(8) %2, ptr noundef nonnull %5, i32 noundef 1)
  call void @llvm.lifetime.end.p0(i64 1, ptr nonnull %5) #13
  %87 = getelementptr inbounds nuw i8, ptr %.1, i64 2
  %88 = load i8, ptr %82, align 1, !tbaa !10
  %89 = icmp ugt i8 %88, -95
  br i1 %89, label %90, label %_ZN6icu_779BytesTrie9skipValueEPKh.exit

90:                                               ; preds = %.preheader
  %91 = icmp samesign ult i8 %88, -40
  br i1 %91, label %92, label %94

92:                                               ; preds = %90
  %93 = getelementptr inbounds nuw i8, ptr %.1, i64 3
  br label %_ZN6icu_779BytesTrie9skipValueEPKh.exit

94:                                               ; preds = %90
  %95 = icmp samesign ult i8 %88, -4
  br i1 %95, label %96, label %98

96:                                               ; preds = %94
  %97 = getelementptr inbounds nuw i8, ptr %.1, i64 4
  br label %_ZN6icu_779BytesTrie9skipValueEPKh.exit

98:                                               ; preds = %94
  %99 = lshr i8 %88, 1
  %100 = and i8 %99, 1
  %101 = zext nneg i8 %100 to i64
  %102 = getelementptr inbounds nuw i8, ptr %87, i64 %101
  %103 = getelementptr inbounds nuw i8, ptr %102, i64 3
  br label %_ZN6icu_779BytesTrie9skipValueEPKh.exit

_ZN6icu_779BytesTrie9skipValueEPKh.exit:          ; preds = %.preheader, %92, %96, %98
  %.0.i.i = phi ptr [ %93, %92 ], [ %97, %96 ], [ %103, %98 ], [ %87, %.preheader ]
  %104 = add nsw i32 %.114, -1
  %105 = icmp sgt i32 %.114, 2
  br i1 %105, label %.preheader, label %106, !llvm.loop !25

106:                                              ; preds = %_ZN6icu_779BytesTrie9skipValueEPKh.exit
  %107 = load i8, ptr %.0.i.i, align 1, !tbaa !10
  call void @llvm.lifetime.start.p0(i64 1, ptr nonnull %4) #13
  store i8 %107, ptr %4, align 1, !tbaa !10
  %108 = load ptr, ptr %2, align 8, !tbaa !22
  %109 = getelementptr inbounds nuw i8, ptr %108, i64 16
  %110 = load ptr, ptr %109, align 8
  call void %110(ptr noundef nonnull align 8 dereferenceable(8) %2, ptr noundef nonnull %4, i32 noundef 1)
  call void @llvm.lifetime.end.p0(i64 1, ptr nonnull %4) #13
  ret void
}